(dp1
S'Mop'
p2
ccopy_reg
_reconstructor
p3
(cdata
Product
p4
c__builtin__
object
p5
NtRp6
(dp7
S'price'
p8
S'6.27'
p9
sS'description'
p10
S'A mop'
p11
sS'name'
p12
S'Mop'
p13
sS'stock'
p14
S'12'
p15
sbsS'Bucket'
p16
g3
(g4
g5
NtRp17
(dp18
g8
S'4.95'
p19
sg10
S'A bucket'
p20
sg12
S'Bucket'
p21
sg14
S'37'
p22
sbs.