(dp1
S'999999999999'
p2
ccopy_reg
_reconstructor
p3
(cdata
Product
p4
c__builtin__
object
p5
NtRp6
(dp7
S'price'
p8
F4.9500000000000002
sS'stock'
p9
I32
sS'upc'
p10
S'999999999999'
p11
sS'name'
p12
S'Bucket'
p13
sS'description'
p14
S'A bucket'
p15
sbsS'111111111111'
p16
g3
(g4
g5
NtRp17
(dp18
g8
F6.2699999999999996
sg9
I8
sg10
S'111111111111'
p19
sg12
S'Mop'
p20
sg14
S'A mop'
p21
sbs.