(dp1
S'999999999999'
p2
ccopy_reg
_reconstructor
p3
(cdata
Product
p4
c__builtin__
object
p5
NtRp6
(dp7
S'description'
p8
S'A bucket'
p9
sS'price'
p10
F4.9500000000000002
sS'stock'
p11
I37
sS'upc'
p12
S'999999999999'
p13
sS'name'
p14
S'Bucket'
p15
sbsS'111111111111'
p16
g3
(g4
g5
NtRp17
(dp18
g8
S'A mop'
p19
sg10
F6.2699999999999996
sg11
I12
sg12
S'111111111111'
p20
sg14
S'Mop'
p21
sbs.