(dp1
S'111111111111'
p2
ccopy_reg
_reconstructor
p3
(cdata
Product
p4
c__builtin__
object
p5
Ntp6
Rp7
(dp8
S'name'
p9
S'Mop'
p10
sS'description'
p11
S'A mop'
p12
sS'upc'
p13
S'111111111111'
p14
sS'stock'
p15
I7
sS'price'
p16
F6.27
sbsS'999999999999'
p17
g3
(g4
g5
Ntp18
Rp19
(dp20
S'name'
p21
S'Bucket'
p22
sS'description'
p23
S'A bucket'
p24
sS'upc'
p25
S'999999999999'
p26
sS'stock'
p27
I30
sS'price'
p28
F4.95
sbs.